target datalayout = "e-m:e-p270:32:32-p271:32:32-p272:64:64-i64:64-i128:128-f80:128-n8:16:32:64-S128"
target triple = "x86_64-pc-linux-gnu"

%class.NativeCallStack = type { [4 x ptr] }
%class.MallocSiteHashtableEntry = type { %class.MallocSite, i32, ptr }
%class.MallocSite = type { %class.AllocationSite.base, %class.MemoryCounter }
%class.AllocationSite.base = type <{ %class.NativeCallStack, i8 }>
%class.MemoryCounter = type { i64, i64, i64, i64 }

@_ZN15MallocSiteTable6_tableE = hidden global ptr null, align 8

; Function Attrs: mustprogress nounwind uwtable
define linkonce_odr hidden noundef ptr @_ZN24MallocSiteHashtableEntry4dataEv(ptr noundef nonnull align 8 dereferenceable(88) %0) #1 comdat align 2 {
  %2 = alloca ptr, align 8
  store ptr %0, ptr %2, align 8
  %3 = load ptr, ptr %2, align 8
  %4 = getelementptr inbounds %class.MallocSiteHashtableEntry, ptr %3, i32 0, i32 0
  ret ptr %4
}

; Function Attrs: mustprogress nounwind uwtable
define linkonce_odr hidden noundef ptr @_ZNK24MallocSiteHashtableEntry4nextEv(ptr noundef nonnull align 8 dereferenceable(88) %0) #1 comdat align 2 {
  %2 = alloca ptr, align 8
  store ptr %0, ptr %2, align 8
  %3 = load ptr, ptr %2, align 8
  %4 = getelementptr inbounds %class.MallocSiteHashtableEntry, ptr %3, i32 0, i32 2
  %5 = load volatile ptr, ptr %4, align 8
  ret ptr %5
}

; Function Attrs: mustprogress nounwind uwtable
define linkonce_odr hidden noundef zeroext i16 @_ZN15MallocSiteTable19pos_idx_from_markerEj(i32 noundef %0) #1 comdat align 2 {
  %2 = alloca i32, align 4
  store i32 %0, ptr %2, align 4
  %3 = load i32, ptr %2, align 4
  %4 = and i32 %3, 65535
  %5 = trunc i32 %4 to i16
  ret i16 %5
}

; Function Attrs: mustprogress nounwind uwtable
define linkonce_odr hidden noundef zeroext i16 @_ZN15MallocSiteTable22bucket_idx_from_markerEj(i32 noundef %0) #1 comdat align 2 {
  %2 = alloca i32, align 4
  store i32 %0, ptr %2, align 4
  %3 = load i32, ptr %2, align 4
  %4 = lshr i32 %3, 16
  %5 = trunc i32 %4 to i16
  ret i16 %5
}

; Function Attrs: mustprogress nounwind uwtable
define hidden noundef ptr @_ZN15MallocSiteTable11malloc_siteEj(i32 noundef %0) #1 align 2 {
  %2 = alloca i32, align 4
  %3 = alloca i16, align 2
  %4 = alloca i16, align 2
  %5 = alloca ptr, align 8
  %6 = alloca i64, align 8
  store i32 %0, ptr %2, align 4
  %7 = load i32, ptr %2, align 4
  %8 = call noundef zeroext i16 @_ZN15MallocSiteTable22bucket_idx_from_markerEj(i32 noundef %7)
  store i16 %8, ptr %3, align 2
  %9 = load i32, ptr %2, align 4
  %10 = call noundef zeroext i16 @_ZN15MallocSiteTable19pos_idx_from_markerEj(i32 noundef %9)
  store i16 %10, ptr %4, align 2
  %11 = load ptr, ptr @_ZN15MallocSiteTable6_tableE, align 8
  %12 = load i16, ptr %3, align 2
  %13 = zext i16 %12 to i64
  %14 = getelementptr inbounds ptr, ptr %11, i64 %13
  %15 = load ptr, ptr %14, align 8
  store ptr %15, ptr %5, align 8
  store i64 0, ptr %6, align 8
  br label %16

16:                                               ; preds = %27, %1
  %17 = load i64, ptr %6, align 8
  %18 = load i16, ptr %4, align 2
  %19 = zext i16 %18 to i64
  %20 = icmp ult i64 %17, %19
  br i1 %20, label %21, label %24

21:                                               ; preds = %16
  %22 = load ptr, ptr %5, align 8
  %23 = icmp ne ptr %22, null
  br label %24

24:                                               ; preds = %21, %16
  %25 = phi i1 [ false, %16 ], [ %23, %21 ]
  br i1 %25, label %26, label %32

26:                                               ; preds = %24
  br label %27

27:                                               ; preds = %26
  %28 = load i64, ptr %6, align 8
  %29 = add i64 %28, 1
  store i64 %29, ptr %6, align 8
  %30 = load ptr, ptr %5, align 8
  %31 = call noundef ptr @_ZNK24MallocSiteHashtableEntry4nextEv(ptr noundef nonnull align 8 dereferenceable(88) %30)
  store ptr %31, ptr %5, align 8
  br label %16, !llvm.loop !12

32:                                               ; preds = %24
  %33 = load ptr, ptr %5, align 8
  %34 = call noundef ptr @_ZN24MallocSiteHashtableEntry4dataEv(ptr noundef nonnull align 8 dereferenceable(88) %33)
  ret ptr %34
}