; Function Attrs: mustprogress nofree norecurse nounwind uwtable
define hidden noundef ptr @_ZN15MallocSiteTable11malloc_siteEj(i32 noundef %0) local_unnamed_addr #5 align 2 {
  %2 = lshr i32 %0, 16
  %3 = zext nneg i32 %2 to i64
  %4 = load ptr, ptr @_ZN15MallocSiteTable6_tableE, align 8
  %5 = getelementptr inbounds ptr, ptr %4, i64 %3
  %6 = load ptr, ptr %5, align 8
  %7 = and i32 %0, 65535
  %8 = zext nneg i32 %7 to i64
  %9 = icmp ne i32 %7, 0
  %10 = icmp ne ptr %6, null
  %11 = select i1 %9, i1 %10, i1 false
  br i1 %11, label %.lr.ph, label %._crit_edge

.lr.ph:                                           ; preds = %1, %.lr.ph
  %.010 = phi i64 [ %12, %.lr.ph ], [ 0, %1 ]
  %.089 = phi ptr [ %14, %.lr.ph ], [ %6, %1 ]
  %12 = add nuw nsw i64 %.010, 1
  %13 = getelementptr inbounds i8, ptr %.089, i64 80
  %14 = load volatile ptr, ptr %13, align 8
  %15 = icmp ult i64 %12, %8
  %16 = icmp ne ptr %14, null
  %17 = select i1 %15, i1 %16, i1 false
  br i1 %17, label %.lr.ph, label %._crit_edge, !llvm.loop !14

._crit_edge:                                      ; preds = %.lr.ph, %1
  %.08.lcssa = phi ptr [ %6, %1 ], [ %14, %.lr.ph ]
  ret ptr %.08.lcssa
}